target datalayout = "e-m:e-p270:32:32-p271:32:32-p272:64:64-i64:64-i128:128-f80:128-n8:16:32:64-S128"
target triple = "x86_64-pc-linux-gnu"

@.str.1 = private unnamed_addr constant [19 x i8] c"../qemu/blockdev.c\00", align 1
@.str.197 = private unnamed_addr constant [7 x i8] c"ignore\00", align 1
@.str.198 = private unnamed_addr constant [7 x i8] c"enospc\00", align 1
@.str.199 = private unnamed_addr constant [5 x i8] c"stop\00", align 1
@.str.200 = private unnamed_addr constant [7 x i8] c"report\00", align 1
@__func__.parse_block_error_action = private unnamed_addr constant [25 x i8] c"parse_block_error_action\00", align 1
@.str.201 = private unnamed_addr constant [29 x i8] c"'%s' invalid %s error action\00", align 1
@.str.202 = private unnamed_addr constant [5 x i8] c"read\00", align 1
@.str.203 = private unnamed_addr constant [6 x i8] c"write\00", align 1

; Function Attrs: nounwind sspstrong uwtable
define internal i32 @parse_block_error_action(ptr noundef %0, i1 noundef zeroext %1, ptr noundef %2) #0 {
  %4 = alloca i32, align 4
  %5 = alloca ptr, align 8
  %6 = alloca i8, align 1
  %7 = alloca ptr, align 8
  store ptr %0, ptr %5, align 8
  %8 = zext i1 %1 to i8
  store i8 %8, ptr %6, align 1
  store ptr %2, ptr %7, align 8
  %9 = load ptr, ptr %5, align 8
  %10 = call i32 @strcmp(ptr noundef %9, ptr noundef @.str.197) #18
  %11 = icmp ne i32 %10, 0
  br i1 %11, label %13, label %12

12:                                               ; preds = %3
  store i32 1, ptr %4, align 4
  br label %37

13:                                               ; preds = %3
  %14 = load i8, ptr %6, align 1, !range !7, !noundef !8
  %15 = trunc i8 %14 to i1
  br i1 %15, label %21, label %16

16:                                               ; preds = %13
  %17 = load ptr, ptr %5, align 8
  %18 = call i32 @strcmp(ptr noundef %17, ptr noundef @.str.198) #18
  %19 = icmp ne i32 %18, 0
  br i1 %19, label %21, label %20

20:                                               ; preds = %16
  store i32 2, ptr %4, align 4
  br label %37

21:                                               ; preds = %16, %13
  %22 = load ptr, ptr %5, align 8
  %23 = call i32 @strcmp(ptr noundef %22, ptr noundef @.str.199) #18
  %24 = icmp ne i32 %23, 0
  br i1 %24, label %26, label %25

25:                                               ; preds = %21
  store i32 3, ptr %4, align 4
  br label %37

26:                                               ; preds = %21
  %27 = load ptr, ptr %5, align 8
  %28 = call i32 @strcmp(ptr noundef %27, ptr noundef @.str.200) #18
  %29 = icmp ne i32 %28, 0
  br i1 %29, label %31, label %30

30:                                               ; preds = %26
  store i32 0, ptr %4, align 4
  br label %37

31:                                               ; preds = %26
  %32 = load ptr, ptr %7, align 8
  %33 = load ptr, ptr %5, align 8
  %34 = load i8, ptr %6, align 1, !range !7, !noundef !8
  %35 = trunc i8 %34 to i1
  %36 = select i1 %35, ptr @.str.202, ptr @.str.203
  call void (ptr, ptr, i32, ptr, ptr, ...) @error_setg_internal(ptr noundef %32, ptr noundef @.str.1, i32 noundef 331, ptr noundef @__func__.parse_block_error_action, ptr noundef @.str.201, ptr noundef %33, ptr noundef %36)
  store i32 -1, ptr %4, align 4
  br label %37

37:                                               ; preds = %31, %30, %25, %20, %12
  %38 = load i32, ptr %4, align 4
  ret i32 %38
}