; Function Attrs: nounwind sspstrong uwtable
define internal fastcc range(i32 -1, 4) i32 @parse_block_error_action(ptr noundef nonnull %0, i1 noundef zeroext %1, ptr noundef nonnull %2) unnamed_addr #0 {
  %4 = tail call i32 @strcmp(ptr noundef nonnull dereferenceable(1) %0, ptr noundef nonnull dereferenceable(7) @.str.197) #17
  %.not = icmp eq i32 %4, 0
  br i1 %.not, label %14, label %5

5:                                                ; preds = %3
  br i1 %1, label %8, label %6

6:                                                ; preds = %5
  %7 = tail call i32 @strcmp(ptr noundef nonnull dereferenceable(1) %0, ptr noundef nonnull dereferenceable(7) @.str.198) #17
  %.not8 = icmp eq i32 %7, 0
  br i1 %.not8, label %14, label %8

8:                                                ; preds = %6, %5
  %9 = tail call i32 @strcmp(ptr noundef nonnull dereferenceable(1) %0, ptr noundef nonnull dereferenceable(5) @.str.199) #17
  %.not9 = icmp eq i32 %9, 0
  br i1 %.not9, label %14, label %10

10:                                               ; preds = %8
  %11 = tail call i32 @strcmp(ptr noundef nonnull dereferenceable(1) %0, ptr noundef nonnull dereferenceable(7) @.str.200) #17
  %.not10 = icmp eq i32 %11, 0
  br i1 %.not10, label %14, label %12

12:                                               ; preds = %10
  %13 = select i1 %1, ptr @.str.202, ptr @.str.203
  tail call void (ptr, ptr, i32, ptr, ptr, ...) @error_setg_internal(ptr noundef nonnull %2, ptr noundef nonnull @.str.1, i32 noundef 331, ptr noundef nonnull @__func__.parse_block_error_action, ptr noundef nonnull @.str.201, ptr noundef nonnull %0, ptr noundef nonnull %13) #14
  br label %14

14:                                               ; preds = %10, %8, %6, %3, %12
  %.0 = phi i32 [ -1, %12 ], [ 1, %3 ], [ 2, %6 ], [ 3, %8 ], [ 0, %10 ]
  ret i32 %.0
}